target datalayout = "e-m:e-p270:32:32-p271:32:32-p272:64:64-i64:64-i128:128-f80:128-n8:16:32:64-S128"
target triple = "x86_64-pc-linux-gnu"

%struct.lxb_html_document = type { %struct.lxb_dom_document, ptr, ptr, ptr, %struct.lxb_html_document_css_t, i8, ptr, i32, i32 }
%struct.lxb_dom_document = type { %struct.lxb_dom_node, i32, i32, ptr, ptr, ptr, ptr, ptr, ptr, ptr, ptr, ptr, ptr, ptr, ptr, ptr, ptr, ptr, ptr, ptr, i8, i8, i8 }
%struct.lxb_dom_node = type { %struct.lxb_dom_event_target, i64, i64, i64, ptr, ptr, ptr, ptr, ptr, ptr, ptr, i32, i64 }
%struct.lxb_dom_event_target = type { ptr }
%struct.lxb_html_document_css_t = type { ptr, ptr, ptr, ptr, ptr, ptr, ptr, ptr, i64 }

; Function Attrs: nounwind uwtable
define hidden ptr @lxb_html_li_element_interface_create(ptr noundef %0) #0 {
  %2 = alloca ptr, align 8
  %3 = alloca ptr, align 8
  %4 = alloca ptr, align 8
  %5 = alloca ptr, align 8
  store ptr %0, ptr %3, align 8
  %6 = load ptr, ptr %3, align 8
  %7 = getelementptr inbounds %struct.lxb_html_document, ptr %6, i32 0, i32 0
  %8 = getelementptr inbounds %struct.lxb_dom_document, ptr %7, i32 0, i32 12
  %9 = load ptr, ptr %8, align 8
  %10 = call ptr @lexbor_mraw_calloc(ptr noundef %9, i64 noundef 184)
  store ptr %10, ptr %4, align 8
  %11 = load ptr, ptr %4, align 8
  %12 = icmp eq ptr %11, null
  br i1 %12, label %13, label %14

13:                                               ; preds = %1
  store ptr null, ptr %2, align 8
  br label %23

14:                                               ; preds = %1
  %15 = load ptr, ptr %4, align 8
  store ptr %15, ptr %5, align 8
  %16 = load ptr, ptr %3, align 8
  %17 = call ptr @lxb_html_document_original_ref(ptr noundef %16)
  %18 = load ptr, ptr %5, align 8
  %19 = getelementptr inbounds %struct.lxb_dom_node, ptr %18, i32 0, i32 4
  store ptr %17, ptr %19, align 8
  %20 = load ptr, ptr %5, align 8
  %21 = getelementptr inbounds %struct.lxb_dom_node, ptr %20, i32 0, i32 11
  store i32 1, ptr %21, align 8
  %22 = load ptr, ptr %4, align 8
  store ptr %22, ptr %2, align 8
  br label %23

23:                                               ; preds = %14, %13
  %24 = load ptr, ptr %2, align 8
  ret ptr %24
}

declare ptr @lexbor_mraw_calloc(ptr noundef, i64 noundef) #1

; Function Attrs: nounwind uwtable
define internal ptr @lxb_html_document_original_ref(ptr noundef %0) #0 {
  %2 = alloca ptr, align 8
  %3 = alloca ptr, align 8
  store ptr %0, ptr %3, align 8
  %4 = load ptr, ptr %3, align 8
  %5 = getelementptr inbounds %struct.lxb_dom_node, ptr %4, i32 0, i32 4
  %6 = load ptr, ptr %5, align 8
  %7 = load ptr, ptr %3, align 8
  %8 = getelementptr inbounds %struct.lxb_html_document, ptr %7, i32 0, i32 0
  %9 = icmp ne ptr %6, %8
  br i1 %9, label %10, label %14

10:                                               ; preds = %1
  %11 = load ptr, ptr %3, align 8
  %12 = getelementptr inbounds %struct.lxb_dom_node, ptr %11, i32 0, i32 4
  %13 = load ptr, ptr %12, align 8
  store ptr %13, ptr %2, align 8
  br label %16

14:                                               ; preds = %1
  %15 = load ptr, ptr %3, align 8
  store ptr %15, ptr %2, align 8
  br label %16

16:                                               ; preds = %14, %10
  %17 = load ptr, ptr %2, align 8
  ret ptr %17
}

; Function Attrs: nounwind uwtable
define hidden ptr @lxb_html_li_element_interface_destroy(ptr noundef %0) #0 {
  %2 = alloca ptr, align 8
  store ptr %0, ptr %2, align 8
  %3 = load ptr, ptr %2, align 8
  %4 = call ptr @lxb_dom_node_interface_destroy(ptr noundef %3)
  ret ptr null
}

declare ptr @lxb_dom_node_interface_destroy(ptr noundef) #1


!llvm.module.flags = !{!0, !1, !2, !3}

!0 = !{i32 1, !"wchar_size", i32 4}
!1 = !{i32 8, !"PIC Level", i32 2}
!2 = !{i32 7, !"uwtable", i32 2}
!3 = !{i32 7, !"frame-pointer", i32 2}
